target datalayout = "e-m:e-p270:32:32-p271:32:32-p272:64:64-i64:64-i128:128-f80:128-n8:16:32:64-S128"
target triple = "x86_64-pc-linux-gnu"

%"struct.open3d::core::TensorRef" = type { ptr, i64, i64, [5 x i64], [5 x i64] }
%"class.open3d::core::Indexer" = type <{ i64, i64, [5 x %"struct.open3d::core::TensorRef"], [2 x %"struct.open3d::core::TensorRef"], [5 x i8], [2 x i8], i8, [5 x i64], [5 x i64], i64, i8, i8, [6 x i8] }>

; Function Attrs: mustprogress ssp uwtable
define void @_ZN6open3d4core7Indexer21UpdateContiguousFlagsEv(ptr noundef nonnull align 8 dereferenceable(842) %0) #0 align 2 {
  %2 = alloca ptr, align 8
  %3 = alloca i64, align 8
  %4 = alloca i64, align 8
  store ptr %0, ptr %2, align 8, !tbaa !4
  %5 = load ptr, ptr %2, align 8
  call void @llvm.lifetime.start.p0(i64 8, ptr %3) #27
  store i64 0, ptr %3, align 8, !tbaa !32
  br label %6

6:                                                ; preds = %21, %1
  %7 = load i64, ptr %3, align 8, !tbaa !32
  %8 = getelementptr inbounds nuw %"class.open3d::core::Indexer", ptr %5, i32 0, i32 0
  %9 = load i64, ptr %8, align 8, !tbaa !25
  %10 = icmp slt i64 %7, %9
  br i1 %10, label %12, label %11

11:                                               ; preds = %6
  call void @llvm.lifetime.end.p0(i64 8, ptr %3) #27
  br label %24

12:                                               ; preds = %6
  %13 = getelementptr inbounds nuw %"class.open3d::core::Indexer", ptr %5, i32 0, i32 2
  %14 = load i64, ptr %3, align 8, !tbaa !32
  %15 = getelementptr inbounds [5 x %"struct.open3d::core::TensorRef"], ptr %13, i64 0, i64 %14
  %16 = call noundef zeroext i1 @_ZNK6open3d4core9TensorRef12IsContiguousEv(ptr noundef nonnull align 8 dereferenceable(104) %15)
  %17 = getelementptr inbounds nuw %"class.open3d::core::Indexer", ptr %5, i32 0, i32 4
  %18 = load i64, ptr %3, align 8, !tbaa !32
  %19 = getelementptr inbounds [5 x i8], ptr %17, i64 0, i64 %18
  %20 = zext i1 %16 to i8
  store i8 %20, ptr %19, align 1, !tbaa !82
  br label %21

21:                                               ; preds = %12
  %22 = load i64, ptr %3, align 8, !tbaa !32
  %23 = add nsw i64 %22, 1
  store i64 %23, ptr %3, align 8, !tbaa !32
  br label %6, !llvm.loop !140

24:                                               ; preds = %11
  call void @llvm.lifetime.start.p0(i64 8, ptr %4) #27
  store i64 0, ptr %4, align 8, !tbaa !32
  br label %25

25:                                               ; preds = %40, %24
  %26 = load i64, ptr %4, align 8, !tbaa !32
  %27 = getelementptr inbounds nuw %"class.open3d::core::Indexer", ptr %5, i32 0, i32 1
  %28 = load i64, ptr %27, align 8, !tbaa !28
  %29 = icmp slt i64 %26, %28
  br i1 %29, label %31, label %30

30:                                               ; preds = %25
  call void @llvm.lifetime.end.p0(i64 8, ptr %4) #27
  br label %43

31:                                               ; preds = %25
  %32 = getelementptr inbounds nuw %"class.open3d::core::Indexer", ptr %5, i32 0, i32 3
  %33 = load i64, ptr %4, align 8, !tbaa !32
  %34 = getelementptr inbounds [2 x %"struct.open3d::core::TensorRef"], ptr %32, i64 0, i64 %33
  %35 = call noundef zeroext i1 @_ZNK6open3d4core9TensorRef12IsContiguousEv(ptr noundef nonnull align 8 dereferenceable(104) %34)
  %36 = getelementptr inbounds nuw %"class.open3d::core::Indexer", ptr %5, i32 0, i32 5
  %37 = load i64, ptr %4, align 8, !tbaa !32
  %38 = getelementptr inbounds [2 x i8], ptr %36, i64 0, i64 %37
  %39 = zext i1 %35 to i8
  store i8 %39, ptr %38, align 1, !tbaa !82
  br label %40

40:                                               ; preds = %31
  %41 = load i64, ptr %4, align 8, !tbaa !32
  %42 = add nsw i64 %41, 1
  store i64 %42, ptr %4, align 8, !tbaa !32
  br label %25, !llvm.loop !141

43:                                               ; preds = %30
  ret void
}