; Function Attrs: mustprogress ssp uwtable
define void @_ZN6open3d4core7Indexer21UpdateContiguousFlagsEv(ptr noundef nonnull align 8 dereferenceable(842) %0) local_unnamed_addr #0 align 2 {
  %2 = load i64, ptr %0, align 8, !tbaa !37
  %3 = icmp sgt i64 %2, 0
  br i1 %3, label %.lr.ph, label %.preheader

.lr.ph:                                           ; preds = %1
  %4 = getelementptr inbounds nuw i8, ptr %0, i64 16
  %5 = getelementptr inbounds nuw i8, ptr %0, i64 744
  br label %11

.preheader:                                       ; preds = %11, %1
  %6 = getelementptr inbounds nuw i8, ptr %0, i64 8
  %7 = load i64, ptr %6, align 8, !tbaa !38
  %8 = icmp sgt i64 %7, 0
  br i1 %8, label %.lr.ph11, label %._crit_edge

.lr.ph11:                                         ; preds = %.preheader
  %9 = getelementptr inbounds nuw i8, ptr %0, i64 536
  %10 = getelementptr inbounds nuw i8, ptr %0, i64 749
  br label %19

11:                                               ; preds = %.lr.ph, %11
  %.089 = phi i64 [ 0, %.lr.ph ], [ %16, %11 ]
  %12 = getelementptr inbounds nuw [5 x %"struct.open3d::core::TensorRef"], ptr %4, i64 0, i64 %.089
  %13 = tail call noundef zeroext i1 @_ZNK6open3d4core9TensorRef12IsContiguousEv(ptr noundef nonnull align 8 dereferenceable(104) %12)
  %14 = getelementptr inbounds nuw [5 x i8], ptr %5, i64 0, i64 %.089
  %15 = zext i1 %13 to i8
  store i8 %15, ptr %14, align 1, !tbaa !79
  %16 = add nuw nsw i64 %.089, 1
  %17 = load i64, ptr %0, align 8, !tbaa !37
  %18 = icmp slt i64 %16, %17
  br i1 %18, label %11, label %.preheader, !llvm.loop !80

._crit_edge:                                      ; preds = %19, %.preheader
  ret void

19:                                               ; preds = %.lr.ph11, %19
  %.010 = phi i64 [ 0, %.lr.ph11 ], [ %24, %19 ]
  %20 = getelementptr inbounds nuw [2 x %"struct.open3d::core::TensorRef"], ptr %9, i64 0, i64 %.010
  %21 = tail call noundef zeroext i1 @_ZNK6open3d4core9TensorRef12IsContiguousEv(ptr noundef nonnull align 8 dereferenceable(104) %20)
  %22 = getelementptr inbounds nuw [2 x i8], ptr %10, i64 0, i64 %.010
  %23 = zext i1 %21 to i8
  store i8 %23, ptr %22, align 1, !tbaa !79
  %24 = add nuw nsw i64 %.010, 1
  %25 = load i64, ptr %6, align 8, !tbaa !38
  %26 = icmp slt i64 %24, %25
  br i1 %26, label %19, label %._crit_edge, !llvm.loop !81
}